; ModuleID = '33/1816.c'
source_filename = "33/1816.c"
target datalayout = "e-m:e-p270:32:32-p271:32:32-p272:64:64-i64:64-f80:128-n8:16:32:64-S128"
target triple = "x86_64-pc-linux-gnu"

@.str = private unnamed_addr constant [3 x i8] c"%d\00", align 1

; Function Attrs: noinline nounwind uwtable
define dso_local i32 @main() #0 {
  %1 = alloca i32, align 4
  %2 = alloca i32, align 4
  %3 = alloca i32, align 4
  %4 = alloca i32, align 4
  %5 = alloca [256 x i8], align 16
  store i32 0, i32* %1, align 4
  %6 = bitcast [256 x i8]* %5 to i8*
  call void @llvm.memset.p0i8.i64(i8* align 16 %6, i8 0, i64 256, i1 false)
  %7 = bitcast i8* %6 to <{ i8, [255 x i8] }>*
  %8 = getelementptr inbounds <{ i8, [255 x i8] }>, <{ i8, [255 x i8] }>* %7, i32 0, i32 0
  store i8 65, i8* %8, align 16
  %9 = call i32 (i8*, ...) @__isoc99_scanf(i8* getelementptr inbounds ([3 x i8], [3 x i8]* @.str, i64 0, i64 0), i32* %2)
  %10 = call i32 @getchar()
  store i32 0, i32* %3, align 4
  br label %11

11:                                               ; preds = %79, %0
  %12 = load i32, i32* %3, align 4
  %13 = load i32, i32* %2, align 4
  %14 = icmp slt i32 %12, %13
  br i1 %14, label %15, label %82

15:                                               ; preds = %11
  %16 = getelementptr inbounds [256 x i8], [256 x i8]* %5, i64 0, i64 0
  %17 = call i32 (i8*, ...) bitcast (i32 (...)* @gets to i32 (i8*, ...)*)(i8* %16)
  store i32 0, i32* %4, align 4
  br label %18

18:                                               ; preds = %73, %15
  %19 = load i32, i32* %4, align 4
  %20 = icmp slt i32 %19, 256
  br i1 %20, label %21, label %76

21:                                               ; preds = %18
  %22 = load i32, i32* %4, align 4
  %23 = sext i32 %22 to i64
  %24 = getelementptr inbounds [256 x i8], [256 x i8]* %5, i64 0, i64 %23
  %25 = load i8, i8* %24, align 1
  %26 = sext i8 %25 to i32
  %27 = icmp eq i32 %26, 65
  br i1 %27, label %28, label %32

28:                                               ; preds = %21
  %29 = load i32, i32* %4, align 4
  %30 = sext i32 %29 to i64
  %31 = getelementptr inbounds [256 x i8], [256 x i8]* %5, i64 0, i64 %30
  store i8 84, i8* %31, align 1
  br label %72

32:                                               ; preds = %21
  %33 = load i32, i32* %4, align 4
  %34 = sext i32 %33 to i64
  %35 = getelementptr inbounds [256 x i8], [256 x i8]* %5, i64 0, i64 %34
  %36 = load i8, i8* %35, align 1
  %37 = sext i8 %36 to i32
  %38 = icmp eq i32 %37, 84
  br i1 %38, label %39, label %43

39:                                               ; preds = %32
  %40 = load i32, i32* %4, align 4
  %41 = sext i32 %40 to i64
  %42 = getelementptr inbounds [256 x i8], [256 x i8]* %5, i64 0, i64 %41
  store i8 65, i8* %42, align 1
  br label %71

43:                                               ; preds = %32
  %44 = load i32, i32* %4, align 4
  %45 = sext i32 %44 to i64
  %46 = getelementptr inbounds [256 x i8], [256 x i8]* %5, i64 0, i64 %45
  %47 = load i8, i8* %46, align 1
  %48 = sext i8 %47 to i32
  %49 = icmp eq i32 %48, 67
  br i1 %49, label %50, label %54

50:                                               ; preds = %43
  %51 = load i32, i32* %4, align 4
  %52 = sext i32 %51 to i64
  %53 = getelementptr inbounds [256 x i8], [256 x i8]* %5, i64 0, i64 %52
  store i8 71, i8* %53, align 1
  br label %70

54:                                               ; preds = %43
  %55 = load i32, i32* %4, align 4
  %56 = sext i32 %55 to i64
  %57 = getelementptr inbounds [256 x i8], [256 x i8]* %5, i64 0, i64 %56
  %58 = load i8, i8* %57, align 1
  %59 = sext i8 %58 to i32
  %60 = icmp eq i32 %59, 71
  br i1 %60, label %61, label %65

61:                                               ; preds = %54
  %62 = load i32, i32* %4, align 4
  %63 = sext i32 %62 to i64
  %64 = getelementptr inbounds [256 x i8], [256 x i8]* %5, i64 0, i64 %63
  store i8 67, i8* %64, align 1
  br label %69

65:                                               ; preds = %54
  %66 = load i32, i32* %4, align 4
  %67 = sext i32 %66 to i64
  %68 = getelementptr inbounds [256 x i8], [256 x i8]* %5, i64 0, i64 %67
  store i8 0, i8* %68, align 1
  br label %69

69:                                               ; preds = %65, %61
  br label %70

70:                                               ; preds = %69, %50
  br label %71

71:                                               ; preds = %70, %39
  br label %72

72:                                               ; preds = %71, %28
  br label %73

73:                                               ; preds = %72
  %74 = load i32, i32* %4, align 4
  %75 = add nsw i32 %74, 1
  store i32 %75, i32* %4, align 4
  br label %18

76:                                               ; preds = %18
  %77 = getelementptr inbounds [256 x i8], [256 x i8]* %5, i64 0, i64 0
  %78 = call i32 @puts(i8* %77)
  br label %79

79:                                               ; preds = %76
  %80 = load i32, i32* %3, align 4
  %81 = add nsw i32 %80, 1
  store i32 %81, i32* %3, align 4
  br label %11

82:                                               ; preds = %11
  ret i32 0
}

; Function Attrs: argmemonly nounwind willreturn
declare void @llvm.memset.p0i8.i64(i8* nocapture writeonly, i8, i64, i1 immarg) #1

declare dso_local i32 @__isoc99_scanf(i8*, ...) #2

declare dso_local i32 @getchar() #2

declare dso_local i32 @gets(...) #2

declare dso_local i32 @puts(i8*) #2


!llvm.module.flags = !{!0}
!llvm.ident = !{!1}

!0 = !{i32 1, !"wchar_size", i32 4}
!1 = !{!"clang version 10.0.0-4ubuntu1 "}
