; ModuleID = 'source-C-CXX/32/1816.c'
source_filename = "source-C-CXX/32/1816.c"
target datalayout = "e-m:e-p270:32:32-p271:32:32-p272:64:64-i64:64-f80:128-n8:16:32:64-S128"
target triple = "x86_64-pc-linux-gnu"

%struct._IO_FILE = type { i32, i8*, i8*, i8*, i8*, i8*, i8*, i8*, i8*, i8*, i8*, i8*, %struct._IO_marker*, %struct._IO_FILE*, i32, i32, i64, i16, i8, [1 x i8], i8*, i64, %struct._IO_codecvt*, %struct._IO_wide_data*, %struct._IO_FILE*, i8*, i64, i32, [20 x i8] }
%struct._IO_marker = type opaque
%struct._IO_codecvt = type opaque
%struct._IO_wide_data = type opaque

@.str = private unnamed_addr constant [3 x i8] c"%d\00", align 1
@stdin = external local_unnamed_addr global %struct._IO_FILE*, align 8

; Function Attrs: nounwind sspstrong uwtable
define dso_local i32 @main() local_unnamed_addr #0 {
  %1 = alloca i32, align 4
  %2 = alloca [256 x i8], align 16
  %3 = bitcast i32* %1 to i8*
  call void @llvm.lifetime.start.p0i8(i64 4, i8* nonnull %3) #5
  %4 = getelementptr inbounds [256 x i8], [256 x i8]* %2, i64 0, i64 0
  call void @llvm.lifetime.start.p0i8(i64 256, i8* nonnull %4) #5
  call void @llvm.memset.p0i8.i64(i8* noundef nonnull align 16 dereferenceable(256) %4, i8 0, i64 256, i1 false)
  store i8 65, i8* %4, align 16
  %5 = call i32 (i8*, ...) @__isoc99_scanf(i8* getelementptr inbounds ([3 x i8], [3 x i8]* @.str, i64 0, i64 0), i32* nonnull %1)
  %6 = load %struct._IO_FILE*, %struct._IO_FILE** @stdin, align 8, !tbaa !5
  %7 = call i32 @getc(%struct._IO_FILE* %6) #5
  %8 = load i32, i32* %1, align 4, !tbaa !9
  %9 = icmp sgt i32 %8, 0
  br i1 %9, label %10, label %31

10:                                               ; preds = %0, %26
  %11 = phi i32 [ %28, %26 ], [ 0, %0 ]
  %12 = call i32 (i8*, ...) bitcast (i32 (...)* @gets to i32 (i8*, ...)*)(i8* nonnull %4) #5
  br label %13

13:                                               ; preds = %36, %10
  %14 = phi i64 [ 0, %10 ], [ %38, %36 ]
  %15 = getelementptr inbounds [256 x i8], [256 x i8]* %2, i64 0, i64 %14
  %16 = load i8, i8* %15, align 2, !tbaa !11
  switch i8 %16, label %20 [
    i8 65, label %21
    i8 84, label %17
    i8 67, label %18
    i8 71, label %19
  ]

17:                                               ; preds = %13
  br label %21

18:                                               ; preds = %13
  br label %21

19:                                               ; preds = %13
  br label %21

20:                                               ; preds = %13
  br label %21

21:                                               ; preds = %13, %18, %20, %19, %17
  %22 = phi i8 [ 71, %18 ], [ 0, %20 ], [ 67, %19 ], [ 65, %17 ], [ 84, %13 ]
  store i8 %22, i8* %15, align 2, !tbaa !11
  %23 = or i64 %14, 1
  %24 = getelementptr inbounds [256 x i8], [256 x i8]* %2, i64 0, i64 %23
  %25 = load i8, i8* %24, align 1, !tbaa !11
  switch i8 %25, label %35 [
    i8 65, label %36
    i8 84, label %34
    i8 67, label %33
    i8 71, label %32
  ]

26:                                               ; preds = %36
  %27 = call i32 @puts(i8* nonnull %4)
  %28 = add nuw nsw i32 %11, 1
  %29 = load i32, i32* %1, align 4, !tbaa !9
  %30 = icmp slt i32 %28, %29
  br i1 %30, label %10, label %31, !llvm.loop !12

31:                                               ; preds = %26, %0
  call void @llvm.lifetime.end.p0i8(i64 256, i8* nonnull %4) #5
  call void @llvm.lifetime.end.p0i8(i64 4, i8* nonnull %3) #5
  ret i32 0

32:                                               ; preds = %21
  br label %36

33:                                               ; preds = %21
  br label %36

34:                                               ; preds = %21
  br label %36

35:                                               ; preds = %21
  br label %36

36:                                               ; preds = %35, %34, %33, %32, %21
  %37 = phi i8 [ 71, %33 ], [ 0, %35 ], [ 67, %32 ], [ 65, %34 ], [ 84, %21 ]
  store i8 %37, i8* %24, align 1, !tbaa !11
  %38 = add nuw nsw i64 %14, 2
  %39 = icmp eq i64 %38, 256
  br i1 %39, label %26, label %13, !llvm.loop !14
}

; Function Attrs: argmemonly mustprogress nofree nosync nounwind willreturn
declare void @llvm.lifetime.start.p0i8(i64 immarg, i8* nocapture) #1

; Function Attrs: argmemonly mustprogress nofree nounwind willreturn writeonly
declare void @llvm.memset.p0i8.i64(i8* nocapture writeonly, i8, i64, i1 immarg) #2

; Function Attrs: nofree nounwind
declare noundef i32 @__isoc99_scanf(i8* nocapture noundef readonly, ...) local_unnamed_addr #3

declare i32 @gets(...) local_unnamed_addr #4

; Function Attrs: nofree nounwind
declare noundef i32 @puts(i8* nocapture noundef readonly) local_unnamed_addr #3

; Function Attrs: argmemonly mustprogress nofree nosync nounwind willreturn
declare void @llvm.lifetime.end.p0i8(i64 immarg, i8* nocapture) #1

; Function Attrs: nofree nounwind
declare noundef i32 @getc(%struct._IO_FILE* nocapture noundef) local_unnamed_addr #3


!llvm.module.flags = !{!0, !1, !2, !3}
!llvm.ident = !{!4}

!0 = !{i32 1, !"wchar_size", i32 4}
!1 = !{i32 7, !"PIC Level", i32 2}
!2 = !{i32 7, !"PIE Level", i32 2}
!3 = !{i32 7, !"uwtable", i32 1}
!4 = !{!"clang version 13.0.0"}
!5 = !{!6, !6, i64 0}
!6 = !{!"any pointer", !7, i64 0}
!7 = !{!"omnipotent char", !8, i64 0}
!8 = !{!"Simple C/C++ TBAA"}
!9 = !{!10, !10, i64 0}
!10 = !{!"int", !7, i64 0}
!11 = !{!7, !7, i64 0}
!12 = distinct !{!12, !13}
!13 = !{!"llvm.loop.mustprogress"}
!14 = distinct !{!14, !13}
